; Function Attrs: mustprogress nounwind uwtable
define void @_ZN9grpc_core7Channel14RegisteredCallD2Ev(ptr noundef nonnull align 8 captures(none) dereferenceable(72) %0) unnamed_addr #5 align 2 personality ptr @__gxx_personality_v0 {
  %2 = getelementptr inbounds nuw i8, ptr %0, i64 64
  %3 = load i8, ptr %2, align 8, !tbaa !6, !range !29, !noundef !30
  %4 = trunc nuw i8 %3 to i1
  br i1 %4, label %5, label %_ZNSt14_Optional_baseIN9grpc_core5SliceELb0ELb0EED2Ev.exit

5:                                                ; preds = %1
  %6 = getelementptr inbounds nuw i8, ptr %0, i64 32
  store i8 0, ptr %2, align 8, !tbaa !6
  %7 = load ptr, ptr %6, align 8, !tbaa !19
  %8 = icmp ugt ptr %7, inttoptr (i64 1 to ptr)
  br i1 %8, label %9, label %_ZNSt14_Optional_baseIN9grpc_core5SliceELb0ELb0EED2Ev.exit

9:                                                ; preds = %5
  %10 = atomicrmw sub ptr %7, i64 1 acq_rel, align 8
  %11 = icmp eq i64 %10, 1
  br i1 %11, label %12, label %_ZNSt14_Optional_baseIN9grpc_core5SliceELb0ELb0EED2Ev.exit

12:                                               ; preds = %9
  %13 = getelementptr inbounds nuw i8, ptr %7, i64 8
  %14 = load ptr, ptr %13, align 8, !tbaa !21
  invoke void %14(ptr noundef nonnull align 8 dereferenceable(16) %7)
          to label %_ZNSt14_Optional_baseIN9grpc_core5SliceELb0ELb0EED2Ev.exit unwind label %15

15:                                               ; preds = %12
  %16 = landingpad { ptr, i32 }
          catch ptr null
  %17 = extractvalue { ptr, i32 } %16, 0
  tail call void @__clang_call_terminate(ptr %17) #34
  unreachable

_ZNSt14_Optional_baseIN9grpc_core5SliceELb0ELb0EED2Ev.exit: ; preds = %1, %5, %9, %12
  %18 = load ptr, ptr %0, align 8, !tbaa !19
  %19 = icmp ugt ptr %18, inttoptr (i64 1 to ptr)
  br i1 %19, label %20, label %_ZN9grpc_core5SliceD2Ev.exit

20:                                               ; preds = %_ZNSt14_Optional_baseIN9grpc_core5SliceELb0ELb0EED2Ev.exit
  %21 = atomicrmw sub ptr %18, i64 1 acq_rel, align 8
  %22 = icmp eq i64 %21, 1
  br i1 %22, label %23, label %_ZN9grpc_core5SliceD2Ev.exit

23:                                               ; preds = %20
  %24 = getelementptr inbounds nuw i8, ptr %18, i64 8
  %25 = load ptr, ptr %24, align 8, !tbaa !21
  invoke void %25(ptr noundef nonnull align 8 dereferenceable(16) %18)
          to label %_ZN9grpc_core5SliceD2Ev.exit unwind label %26

26:                                               ; preds = %23
  %27 = landingpad { ptr, i32 }
          catch ptr null
  %28 = extractvalue { ptr, i32 } %27, 0
  tail call void @__clang_call_terminate(ptr %28) #34
  unreachable

_ZN9grpc_core5SliceD2Ev.exit:                     ; preds = %_ZNSt14_Optional_baseIN9grpc_core5SliceELb0ELb0EED2Ev.exit, %20, %23
  ret void
}